target datalayout = "e-m:e-p270:32:32-p271:32:32-p272:64:64-i64:64-i128:128-f80:128-n8:16:32:64-S128"
target triple = "x86_64-pc-linux-gnu"

%class.Type.base = type <{ ptr, ptr, i32 }>
%class.TypePtr = type <{ %class.Type.base, [4 x i8], ptr, i32, i32, i32, [4 x i8] }>

; Function Attrs: mustprogress nounwind uwtable
define linkonce_odr hidden noundef ptr @_ZNK4Type6is_ptrEv(ptr noundef nonnull align 8 dereferenceable(20) %0) #1 comdat align 2 {
  %2 = alloca ptr, align 8
  store ptr %0, ptr %2, align 8
  %3 = load ptr, ptr %2, align 8
  ret ptr %3
}

; Function Attrs: mustprogress nounwind uwtable
define hidden noundef ptr @_ZNK7TypePtr22add_offset_speculativeEl(ptr noundef nonnull align 8 dereferenceable(44) %0, i64 noundef %1) #1 align 2 {
  %3 = alloca ptr, align 8
  %4 = alloca ptr, align 8
  %5 = alloca i64, align 8
  store ptr %0, ptr %4, align 8
  store i64 %1, ptr %5, align 8
  %6 = load ptr, ptr %4, align 8
  %7 = getelementptr inbounds %class.TypePtr, ptr %6, i32 0, i32 2
  %8 = load ptr, ptr %7, align 8
  %9 = icmp eq ptr %8, null
  br i1 %9, label %10, label %11

10:                                               ; preds = %2
  store ptr null, ptr %3, align 8
  br label %20

11:                                               ; preds = %2
  %12 = getelementptr inbounds %class.TypePtr, ptr %6, i32 0, i32 2
  %13 = load ptr, ptr %12, align 8
  %14 = load i64, ptr %5, align 8
  %15 = load ptr, ptr %13, align 8
  %16 = getelementptr inbounds ptr, ptr %15, i64 24
  %17 = load ptr, ptr %16, align 8
  %18 = call noundef ptr %17(ptr noundef nonnull align 8 dereferenceable(44) %13, i64 noundef %14)
  %19 = call noundef ptr @_ZNK4Type6is_ptrEv(ptr noundef nonnull align 8 dereferenceable(20) %18)
  store ptr %19, ptr %3, align 8
  br label %20

20:                                               ; preds = %11, %10
  %21 = load ptr, ptr %3, align 8
  ret ptr %21
}