; Function Attrs: mustprogress nounwind uwtable
define hidden noundef ptr @_ZNK7TypePtr22add_offset_speculativeEl(ptr nocapture noundef nonnull readonly align 8 dereferenceable(44) %0, i64 noundef %1) local_unnamed_addr #0 align 2 {
  %3 = getelementptr inbounds i8, ptr %0, i64 24
  %4 = load ptr, ptr %3, align 8
  %5 = icmp eq ptr %4, null
  br i1 %5, label %11, label %6

6:                                                ; preds = %2
  %7 = load ptr, ptr %4, align 8
  %8 = getelementptr inbounds i8, ptr %7, i64 192
  %9 = load ptr, ptr %8, align 8
  %10 = tail call noundef ptr %9(ptr noundef nonnull align 8 dereferenceable(44) %4, i64 noundef %1) #17
  br label %11

11:                                               ; preds = %2, %6
  %.0 = phi ptr [ %10, %6 ], [ null, %2 ]
  ret ptr %.0
}